; Function Attrs: nounwind uwtable
define dso_local void @setTypeMaybeConvert(ptr noundef %0, i64 noundef %1) local_unnamed_addr #0 {
  %3 = load i32, ptr %0, align 8
  %4 = and i32 %3, 240
  %5 = icmp eq i32 %4, 176
  %6 = load i64, ptr getelementptr inbounds nuw (i8, ptr @server, i64 7720), align 8
  %7 = icmp ugt i64 %1, %6
  %or.cond = select i1 %5, i1 %7, i1 false
  br i1 %or.cond, label %12, label %8

8:                                                ; preds = %2
  %9 = icmp eq i32 %4, 96
  %10 = load i64, ptr getelementptr inbounds nuw (i8, ptr @server, i64 7712), align 8
  %11 = icmp ugt i64 %1, %10
  %or.cond7 = select i1 %9, i1 %11, i1 false
  br i1 %or.cond7, label %12, label %14

12:                                               ; preds = %8, %2
  %13 = tail call i32 @setTypeConvertAndExpand(ptr noundef nonnull %0, i32 noundef 2, i64 noundef %1, i32 noundef 1)
  br label %14

14:                                               ; preds = %12, %8
  ret void
}